target datalayout = "e-m:e-p270:32:32-p271:32:32-p272:64:64-i64:64-i128:128-f80:128-n8:16:32:64-S128"
target triple = "x86_64-pc-linux-gnu"

%struct._YR_ARENA_PAGE = type { ptr, ptr, i64, i64, ptr, ptr, ptr, ptr }
%struct._YR_ARENA = type { i32, ptr, ptr }

; Function Attrs: nounwind uwtable
define ptr @_yr_arena_new_page(i64 noundef %0) #0 {
  %2 = alloca ptr, align 8
  %3 = alloca i64, align 8
  %4 = alloca ptr, align 8
  store i64 %0, ptr %3, align 8
  %5 = call ptr @cli_max_malloc(i64 noundef 64)
  store ptr %5, ptr %4, align 8
  %6 = load ptr, ptr %4, align 8
  %7 = icmp eq ptr %6, null
  br i1 %7, label %8, label %9

8:                                                ; preds = %1
  store ptr null, ptr %2, align 8
  br label %35

9:                                                ; preds = %1
  %10 = load i64, ptr %3, align 8
  %11 = call ptr @cli_max_malloc(i64 noundef %10)
  %12 = load ptr, ptr %4, align 8
  %13 = getelementptr inbounds %struct._YR_ARENA_PAGE, ptr %12, i32 0, i32 1
  store ptr %11, ptr %13, align 8
  %14 = load ptr, ptr %4, align 8
  %15 = getelementptr inbounds %struct._YR_ARENA_PAGE, ptr %14, i32 0, i32 1
  %16 = load ptr, ptr %15, align 8
  %17 = icmp eq ptr %16, null
  br i1 %17, label %18, label %20

18:                                               ; preds = %9
  %19 = load ptr, ptr %4, align 8
  call void @free(ptr noundef %19) #8
  store ptr null, ptr %2, align 8
  br label %35

20:                                               ; preds = %9
  %21 = load i64, ptr %3, align 8
  %22 = load ptr, ptr %4, align 8
  %23 = getelementptr inbounds %struct._YR_ARENA_PAGE, ptr %22, i32 0, i32 2
  store i64 %21, ptr %23, align 8
  %24 = load ptr, ptr %4, align 8
  %25 = getelementptr inbounds %struct._YR_ARENA_PAGE, ptr %24, i32 0, i32 3
  store i64 0, ptr %25, align 8
  %26 = load ptr, ptr %4, align 8
  %27 = getelementptr inbounds %struct._YR_ARENA_PAGE, ptr %26, i32 0, i32 6
  store ptr null, ptr %27, align 8
  %28 = load ptr, ptr %4, align 8
  %29 = getelementptr inbounds %struct._YR_ARENA_PAGE, ptr %28, i32 0, i32 7
  store ptr null, ptr %29, align 8
  %30 = load ptr, ptr %4, align 8
  %31 = getelementptr inbounds %struct._YR_ARENA_PAGE, ptr %30, i32 0, i32 4
  store ptr null, ptr %31, align 8
  %32 = load ptr, ptr %4, align 8
  %33 = getelementptr inbounds %struct._YR_ARENA_PAGE, ptr %32, i32 0, i32 5
  store ptr null, ptr %33, align 8
  %34 = load ptr, ptr %4, align 8
  store ptr %34, ptr %2, align 8
  br label %35

35:                                               ; preds = %20, %18, %8
  %36 = load ptr, ptr %2, align 8
  ret ptr %36
}

; Function Attrs: nounwind uwtable
define i32 @yr_arena_reserve_memory(ptr noundef %0, i64 noundef %1) #0 {
  %3 = alloca i32, align 4
  %4 = alloca ptr, align 8
  %5 = alloca i64, align 8
  %6 = alloca ptr, align 8
  %7 = alloca i64, align 8
  %8 = alloca ptr, align 8
  store ptr %0, ptr %4, align 8
  store i64 %1, ptr %5, align 8
  %9 = load i64, ptr %5, align 8
  %10 = load ptr, ptr %4, align 8
  %11 = getelementptr inbounds %struct._YR_ARENA, ptr %10, i32 0, i32 2
  %12 = load ptr, ptr %11, align 8
  %13 = getelementptr inbounds %struct._YR_ARENA_PAGE, ptr %12, i32 0, i32 2
  %14 = load i64, ptr %13, align 8
  %15 = load ptr, ptr %4, align 8
  %16 = getelementptr inbounds %struct._YR_ARENA, ptr %15, i32 0, i32 2
  %17 = load ptr, ptr %16, align 8
  %18 = getelementptr inbounds %struct._YR_ARENA_PAGE, ptr %17, i32 0, i32 3
  %19 = load i64, ptr %18, align 8
  %20 = sub i64 %14, %19
  %21 = icmp ugt i64 %9, %20
  br i1 %21, label %22, label %97

22:                                               ; preds = %2
  %23 = load ptr, ptr %4, align 8
  %24 = getelementptr inbounds %struct._YR_ARENA, ptr %23, i32 0, i32 0
  %25 = load i32, ptr %24, align 8
  %26 = and i32 %25, 1
  %27 = icmp ne i32 %26, 0
  br i1 %27, label %28, label %29

28:                                               ; preds = %22
  store i32 1, ptr %3, align 4
  br label %98

29:                                               ; preds = %22
  %30 = load ptr, ptr %4, align 8
  %31 = getelementptr inbounds %struct._YR_ARENA, ptr %30, i32 0, i32 2
  %32 = load ptr, ptr %31, align 8
  %33 = getelementptr inbounds %struct._YR_ARENA_PAGE, ptr %32, i32 0, i32 2
  %34 = load i64, ptr %33, align 8
  %35 = mul i64 %34, 2
  store i64 %35, ptr %7, align 8
  br label %36

36:                                               ; preds = %40, %29
  %37 = load i64, ptr %7, align 8
  %38 = load i64, ptr %5, align 8
  %39 = icmp ult i64 %37, %38
  br i1 %39, label %40, label %43

40:                                               ; preds = %36
  %41 = load i64, ptr %7, align 8
  %42 = mul i64 %41, 2
  store i64 %42, ptr %7, align 8
  br label %36

43:                                               ; preds = %36
  %44 = load ptr, ptr %4, align 8
  %45 = getelementptr inbounds %struct._YR_ARENA, ptr %44, i32 0, i32 2
  %46 = load ptr, ptr %45, align 8
  %47 = getelementptr inbounds %struct._YR_ARENA_PAGE, ptr %46, i32 0, i32 3
  %48 = load i64, ptr %47, align 8
  %49 = icmp eq i64 %48, 0
  br i1 %49, label %50, label %72

50:                                               ; preds = %43
  %51 = load ptr, ptr %4, align 8
  %52 = getelementptr inbounds %struct._YR_ARENA, ptr %51, i32 0, i32 2
  %53 = load ptr, ptr %52, align 8
  %54 = getelementptr inbounds %struct._YR_ARENA_PAGE, ptr %53, i32 0, i32 1
  %55 = load ptr, ptr %54, align 8
  %56 = load i64, ptr %7, align 8
  %57 = call ptr @cli_max_realloc(ptr noundef %55, i64 noundef %56)
  store ptr %57, ptr %8, align 8
  %58 = load ptr, ptr %8, align 8
  %59 = icmp eq ptr %58, null
  br i1 %59, label %60, label %61

60:                                               ; preds = %50
  store i32 1, ptr %3, align 4
  br label %98

61:                                               ; preds = %50
  %62 = load ptr, ptr %8, align 8
  %63 = load ptr, ptr %4, align 8
  %64 = getelementptr inbounds %struct._YR_ARENA, ptr %63, i32 0, i32 2
  %65 = load ptr, ptr %64, align 8
  %66 = getelementptr inbounds %struct._YR_ARENA_PAGE, ptr %65, i32 0, i32 1
  store ptr %62, ptr %66, align 8
  %67 = load i64, ptr %7, align 8
  %68 = load ptr, ptr %4, align 8
  %69 = getelementptr inbounds %struct._YR_ARENA, ptr %68, i32 0, i32 2
  %70 = load ptr, ptr %69, align 8
  %71 = getelementptr inbounds %struct._YR_ARENA_PAGE, ptr %70, i32 0, i32 2
  store i64 %67, ptr %71, align 8
  br label %96

72:                                               ; preds = %43
  %73 = load i64, ptr %7, align 8
  %74 = call ptr @_yr_arena_new_page(i64 noundef %73)
  store ptr %74, ptr %6, align 8
  %75 = load ptr, ptr %6, align 8
  %76 = icmp eq ptr %75, null
  br i1 %76, label %77, label %78

77:                                               ; preds = %72
  store i32 1, ptr %3, align 4
  br label %98

78:                                               ; preds = %72
  %79 = load ptr, ptr %4, align 8
  %80 = getelementptr inbounds %struct._YR_ARENA, ptr %79, i32 0, i32 2
  %81 = load ptr, ptr %80, align 8
  %82 = load ptr, ptr %6, align 8
  %83 = getelementptr inbounds %struct._YR_ARENA_PAGE, ptr %82, i32 0, i32 7
  store ptr %81, ptr %83, align 8
  %84 = load ptr, ptr %6, align 8
  %85 = load ptr, ptr %4, align 8
  %86 = getelementptr inbounds %struct._YR_ARENA, ptr %85, i32 0, i32 2
  %87 = load ptr, ptr %86, align 8
  %88 = getelementptr inbounds %struct._YR_ARENA_PAGE, ptr %87, i32 0, i32 6
  store ptr %84, ptr %88, align 8
  %89 = load ptr, ptr %6, align 8
  %90 = load ptr, ptr %4, align 8
  %91 = getelementptr inbounds %struct._YR_ARENA, ptr %90, i32 0, i32 2
  store ptr %89, ptr %91, align 8
  %92 = load ptr, ptr %4, align 8
  %93 = getelementptr inbounds %struct._YR_ARENA, ptr %92, i32 0, i32 0
  %94 = load i32, ptr %93, align 8
  %95 = and i32 %94, -3
  store i32 %95, ptr %93, align 8
  br label %96

96:                                               ; preds = %78, %61
  br label %97

97:                                               ; preds = %96, %2
  store i32 0, ptr %3, align 4
  br label %98

98:                                               ; preds = %97, %77, %60, %28
  %99 = load i32, ptr %3, align 4
  ret i32 %99
}