; Function Attrs: nounwind uwtable
define noundef i32 @yr_arena_reserve_memory(ptr nocapture noundef %0, i64 noundef %1) local_unnamed_addr #0 {
  %3 = getelementptr inbounds i8, ptr %0, i64 16
  %4 = load ptr, ptr %3, align 8
  %5 = getelementptr inbounds i8, ptr %4, i64 16
  %6 = load i64, ptr %5, align 8
  %7 = getelementptr inbounds i8, ptr %4, i64 24
  %8 = load i64, ptr %7, align 8
  %9 = sub i64 %6, %8
  %10 = icmp ult i64 %9, %1
  br i1 %10, label %11, label %_yr_arena_new_page.exit.thread

11:                                               ; preds = %2
  %12 = load i32, ptr %0, align 8
  %13 = and i32 %12, 1
  %.not = icmp eq i32 %13, 0
  br i1 %.not, label %.preheader, label %_yr_arena_new_page.exit.thread

.preheader:                                       ; preds = %11, %.preheader
  %.025.in = phi i64 [ %.025, %.preheader ], [ %6, %11 ]
  %.025 = shl i64 %.025.in, 1
  %14 = icmp ult i64 %.025, %1
  br i1 %14, label %.preheader, label %15

15:                                               ; preds = %.preheader
  %16 = icmp eq i64 %8, 0
  br i1 %16, label %17, label %27

17:                                               ; preds = %15
  %18 = getelementptr inbounds i8, ptr %4, i64 8
  %19 = load ptr, ptr %18, align 8
  %20 = tail call ptr @cli_max_realloc(ptr noundef %19, i64 noundef %.025) #11
  %21 = icmp eq ptr %20, null
  br i1 %21, label %_yr_arena_new_page.exit.thread, label %22

22:                                               ; preds = %17
  %23 = load ptr, ptr %3, align 8
  %24 = getelementptr inbounds i8, ptr %23, i64 8
  store ptr %20, ptr %24, align 8
  %25 = load ptr, ptr %3, align 8
  %26 = getelementptr inbounds i8, ptr %25, i64 16
  store i64 %.025, ptr %26, align 8
  br label %_yr_arena_new_page.exit.thread

27:                                               ; preds = %15
  %28 = tail call ptr @cli_max_malloc(i64 noundef 64) #11
  %29 = icmp eq ptr %28, null
  br i1 %29, label %_yr_arena_new_page.exit.thread, label %30

30:                                               ; preds = %27
  %31 = tail call ptr @cli_max_malloc(i64 noundef %.025) #11
  %32 = getelementptr inbounds i8, ptr %28, i64 8
  store ptr %31, ptr %32, align 8
  %33 = icmp eq ptr %31, null
  br i1 %33, label %34, label %35

34:                                               ; preds = %30
  tail call void @free(ptr noundef nonnull %28) #11
  br label %_yr_arena_new_page.exit.thread

35:                                               ; preds = %30
  %36 = getelementptr inbounds i8, ptr %28, i64 16
  store i64 %.025, ptr %36, align 8
  %37 = getelementptr inbounds i8, ptr %28, i64 24
  tail call void @llvm.memset.p0.i64(ptr noundef nonnull align 8 dereferenceable(40) %37, i8 0, i64 40, i1 false)
  %38 = load ptr, ptr %3, align 8
  %39 = getelementptr inbounds i8, ptr %28, i64 56
  store ptr %38, ptr %39, align 8
  %40 = getelementptr inbounds i8, ptr %38, i64 48
  store ptr %28, ptr %40, align 8
  store ptr %28, ptr %3, align 8
  %41 = load i32, ptr %0, align 8
  %42 = and i32 %41, -3
  store i32 %42, ptr %0, align 8
  br label %_yr_arena_new_page.exit.thread

_yr_arena_new_page.exit.thread:                   ; preds = %27, %34, %2, %35, %22, %17, %11
  %.0 = phi i32 [ 1, %11 ], [ 1, %17 ], [ 0, %22 ], [ 0, %35 ], [ 0, %2 ], [ 1, %34 ], [ 1, %27 ]
  ret i32 %.0
}